; Function Attrs: mustprogress nounwind uwtable
define hidden void @_ZN2cv6detail8tracking15online_boosting25WeakClassifierHaarFeatureD0Ev(ptr noundef nonnull align 8 dereferenceable(24) initializes((0, 8)) %0) unnamed_addr #8 align 2 {
  store ptr getelementptr inbounds nuw inrange(-16, 16) (i8, ptr @_ZTVN2cv6detail8tracking15online_boosting25WeakClassifierHaarFeatureE, i64 16), ptr %0, align 8, !tbaa !3
  %2 = getelementptr inbounds nuw i8, ptr %0, i64 16
  %3 = load ptr, ptr %2, align 8, !tbaa !83
  %4 = icmp eq ptr %3, null
  br i1 %4, label %_ZN2cv6detail8tracking15online_boosting25WeakClassifierHaarFeatureD2Ev.exit, label %5

5:                                                ; preds = %1
  %6 = load ptr, ptr %3, align 8, !tbaa !3
  %7 = getelementptr inbounds nuw i8, ptr %6, i64 8
  %8 = load ptr, ptr %7, align 8
  tail call void %8(ptr noundef nonnull align 8 dereferenceable(32) %3) #24
  br label %_ZN2cv6detail8tracking15online_boosting25WeakClassifierHaarFeatureD2Ev.exit

_ZN2cv6detail8tracking15online_boosting25WeakClassifierHaarFeatureD2Ev.exit: ; preds = %1, %5
  tail call void @_ZdlPv(ptr noundef nonnull %0) #26
  ret void
}